; Function Attrs: nounwind uwtable
define zeroext range(i8 0, 2) i8 @l_Std_Time_Duration_instDecidableLe(ptr noundef readonly captures(none) %0, ptr noundef readonly captures(none) %1) local_unnamed_addr #0 {
  %3 = getelementptr inbounds nuw i8, ptr %0, i64 8
  %4 = load ptr, ptr %3, align 8, !tbaa !4
  %5 = load ptr, ptr @l_Std_Time_Duration_ofNanoseconds___closed__1, align 8, !tbaa !4
  %6 = ptrtoint ptr %4 to i64
  %7 = and i64 %6, 1
  %.not.i27 = icmp eq i64 %7, 0
  br i1 %.not.i27, label %.critedge.i, label %8, !prof !8

8:                                                ; preds = %2
  %9 = ptrtoint ptr %5 to i64
  %10 = and i64 %9, 1
  %.not7.i = icmp eq i64 %10, 0
  br i1 %.not7.i, label %.critedge.i, label %11, !prof !8

11:                                               ; preds = %8
  %12 = shl i64 %6, 31
  %13 = ashr i64 %12, 32
  %14 = shl i64 %9, 31
  %15 = ashr i64 %14, 32
  %16 = mul nsw i64 %15, %13
  %17 = add nsw i64 %16, 2147483648
  %18 = icmp ult i64 %17, 4294967296
  br i1 %18, label %19, label %24, !prof !14

19:                                               ; preds = %11
  %20 = shl nsw i64 %16, 1
  %21 = and i64 %20, 8589934590
  %22 = or disjoint i64 %21, 1
  %23 = inttoptr i64 %22 to ptr
  br label %lean_int_mul.exit

24:                                               ; preds = %11
  %25 = tail call ptr @lean_big_int64_to_int(i64 noundef range(i64 -4611686016279904256, 4611686018427387905) %16) #3
  br label %lean_int_mul.exit

.critedge.i:                                      ; preds = %8, %2
  %26 = tail call ptr @lean_int_big_mul(ptr noundef %4, ptr noundef %5) #3
  br label %lean_int_mul.exit

lean_int_mul.exit:                                ; preds = %19, %24, %.critedge.i
  %.0.i = phi ptr [ %26, %.critedge.i ], [ %23, %19 ], [ %25, %24 ]
  %27 = getelementptr inbounds nuw i8, ptr %0, i64 16
  %28 = load ptr, ptr %27, align 8, !tbaa !4
  %29 = ptrtoint ptr %.0.i to i64
  %30 = and i64 %29, 1
  %.not.i28 = icmp eq i64 %30, 0
  br i1 %.not.i28, label %50, label %31, !prof !8

31:                                               ; preds = %lean_int_mul.exit
  %32 = ptrtoint ptr %28 to i64
  %33 = and i64 %32, 1
  %.not7.i29 = icmp eq i64 %33, 0
  br i1 %.not7.i29, label %lean_int_add.exit.thread44, label %35, !prof !8

lean_int_add.exit.thread44:                       ; preds = %31
  %34 = tail call ptr @lean_int_big_add(ptr noundef %.0.i, ptr noundef %28) #3
  br label %lean_dec.exit20

35:                                               ; preds = %31
  %36 = shl i64 %29, 31
  %37 = ashr i64 %36, 32
  %38 = shl i64 %32, 31
  %39 = ashr i64 %38, 32
  %40 = add nsw i64 %39, %37
  %41 = add nsw i64 %40, 2147483648
  %42 = icmp ult i64 %41, 4294967296
  br i1 %42, label %43, label %48, !prof !14

43:                                               ; preds = %35
  %44 = shl nsw i64 %40, 1
  %45 = and i64 %44, 8589934590
  %46 = or disjoint i64 %45, 1
  %47 = inttoptr i64 %46 to ptr
  br label %lean_dec.exit20

48:                                               ; preds = %35
  %49 = tail call ptr @lean_big_int64_to_int(i64 noundef range(i64 -4611686016279904256, 4611686018427387905) %40) #3
  br label %lean_dec.exit20

50:                                               ; preds = %lean_int_mul.exit
  %51 = tail call ptr @lean_int_big_add(ptr noundef %.0.i, ptr noundef %28) #3
  %52 = load i32, ptr %.0.i, align 4, !tbaa !9
  %53 = icmp sgt i32 %52, 1
  br i1 %53, label %54, label %56, !prof !14

54:                                               ; preds = %50
  %55 = add nsw i32 %52, -1
  store i32 %55, ptr %.0.i, align 4, !tbaa !9
  br label %lean_dec.exit20

56:                                               ; preds = %50
  %.not.i = icmp eq i32 %52, 0
  br i1 %.not.i, label %lean_dec.exit20, label %57

57:                                               ; preds = %56
  tail call void @lean_dec_ref_cold(ptr noundef nonnull %.0.i) #3
  br label %lean_dec.exit20

lean_dec.exit20:                                  ; preds = %48, %43, %57, %56, %54, %lean_int_add.exit.thread44
  %.0.i3043 = phi ptr [ %34, %lean_int_add.exit.thread44 ], [ %51, %54 ], [ %51, %56 ], [ %51, %57 ], [ %49, %48 ], [ %47, %43 ]
  %58 = getelementptr inbounds nuw i8, ptr %1, i64 8
  %59 = load ptr, ptr %58, align 8, !tbaa !4
  %60 = ptrtoint ptr %59 to i64
  %61 = and i64 %60, 1
  %.not.i32 = icmp eq i64 %61, 0
  br i1 %.not.i32, label %.critedge.i35, label %62, !prof !8

62:                                               ; preds = %lean_dec.exit20
  %63 = ptrtoint ptr %5 to i64
  %64 = and i64 %63, 1
  %.not7.i33 = icmp eq i64 %64, 0
  br i1 %.not7.i33, label %.critedge.i35, label %65, !prof !8

65:                                               ; preds = %62
  %66 = shl i64 %60, 31
  %67 = ashr i64 %66, 32
  %68 = shl i64 %63, 31
  %69 = ashr i64 %68, 32
  %70 = mul nsw i64 %67, %69
  %71 = add nsw i64 %70, 2147483648
  %72 = icmp ult i64 %71, 4294967296
  br i1 %72, label %73, label %78, !prof !14

73:                                               ; preds = %65
  %74 = shl nsw i64 %70, 1
  %75 = and i64 %74, 8589934590
  %76 = or disjoint i64 %75, 1
  %77 = inttoptr i64 %76 to ptr
  br label %lean_int_mul.exit36

78:                                               ; preds = %65
  %79 = tail call ptr @lean_big_int64_to_int(i64 noundef range(i64 -4611686016279904256, 4611686018427387905) %70) #3
  br label %lean_int_mul.exit36

.critedge.i35:                                    ; preds = %62, %lean_dec.exit20
  %80 = tail call ptr @lean_int_big_mul(ptr noundef %59, ptr noundef %5) #3
  br label %lean_int_mul.exit36

lean_int_mul.exit36:                              ; preds = %73, %78, %.critedge.i35
  %.0.i34 = phi ptr [ %80, %.critedge.i35 ], [ %77, %73 ], [ %79, %78 ]
  %81 = getelementptr inbounds nuw i8, ptr %1, i64 16
  %82 = load ptr, ptr %81, align 8, !tbaa !4
  %83 = ptrtoint ptr %.0.i34 to i64
  %84 = and i64 %83, 1
  %.not.i37 = icmp eq i64 %84, 0
  br i1 %.not.i37, label %104, label %85, !prof !8

85:                                               ; preds = %lean_int_mul.exit36
  %86 = ptrtoint ptr %82 to i64
  %87 = and i64 %86, 1
  %.not7.i38 = icmp eq i64 %87, 0
  br i1 %.not7.i38, label %lean_int_add.exit41.thread47, label %89, !prof !8

lean_int_add.exit41.thread47:                     ; preds = %85
  %88 = tail call ptr @lean_int_big_add(ptr noundef %.0.i34, ptr noundef %82) #3
  br label %lean_dec.exit19

89:                                               ; preds = %85
  %90 = shl i64 %83, 31
  %91 = ashr i64 %90, 32
  %92 = shl i64 %86, 31
  %93 = ashr i64 %92, 32
  %94 = add nsw i64 %93, %91
  %95 = add nsw i64 %94, 2147483648
  %96 = icmp ult i64 %95, 4294967296
  br i1 %96, label %97, label %102, !prof !14

97:                                               ; preds = %89
  %98 = shl nsw i64 %94, 1
  %99 = and i64 %98, 8589934590
  %100 = or disjoint i64 %99, 1
  %101 = inttoptr i64 %100 to ptr
  br label %lean_dec.exit19

102:                                              ; preds = %89
  %103 = tail call ptr @lean_big_int64_to_int(i64 noundef range(i64 -4611686016279904256, 4611686018427387905) %94) #3
  br label %lean_dec.exit19

104:                                              ; preds = %lean_int_mul.exit36
  %105 = tail call ptr @lean_int_big_add(ptr noundef %.0.i34, ptr noundef %82) #3
  %106 = load i32, ptr %.0.i34, align 4, !tbaa !9
  %107 = icmp sgt i32 %106, 1
  br i1 %107, label %108, label %110, !prof !14

108:                                              ; preds = %104
  %109 = add nsw i32 %106, -1
  store i32 %109, ptr %.0.i34, align 4, !tbaa !9
  br label %lean_dec.exit19

110:                                              ; preds = %104
  %.not.i21 = icmp eq i32 %106, 0
  br i1 %.not.i21, label %lean_dec.exit19, label %111

111:                                              ; preds = %110
  tail call void @lean_dec_ref_cold(ptr noundef nonnull %.0.i34) #3
  br label %lean_dec.exit19

lean_dec.exit19:                                  ; preds = %102, %97, %111, %110, %108, %lean_int_add.exit41.thread47
  %.0.i3946 = phi ptr [ %88, %lean_int_add.exit41.thread47 ], [ %105, %108 ], [ %105, %110 ], [ %105, %111 ], [ %103, %102 ], [ %101, %97 ]
  %112 = ptrtoint ptr %.0.i3043 to i64
  %113 = and i64 %112, 1
  %.not.i.i = icmp eq i64 %113, 0
  %.pre51 = ptrtoint ptr %.0.i3946 to i64
  %.pre = and i64 %.pre51, 1
  %114 = icmp eq i64 %.pre, 0
  br i1 %.not.i.i, label %lean_int_dec_le.exit, label %115, !prof !8

115:                                              ; preds = %lean_dec.exit19
  br i1 %114, label %lean_int_dec_le.exit.thread55, label %lean_dec.exit18.thread60, !prof !8

lean_int_dec_le.exit.thread55:                    ; preds = %115
  %116 = tail call zeroext i1 @lean_int_big_le(ptr noundef %.0.i3043, ptr noundef %.0.i3946) #3
  br label %123

lean_dec.exit18.thread60:                         ; preds = %115
  %117 = lshr i64 %112, 1
  %118 = trunc i64 %117 to i32
  %119 = lshr i64 %.pre51, 1
  %120 = trunc i64 %119 to i32
  %121 = icmp sle i32 %118, %120
  br label %lean_dec.exit

lean_int_dec_le.exit:                             ; preds = %lean_dec.exit19
  %122 = tail call zeroext i1 @lean_int_big_le(ptr noundef %.0.i3043, ptr noundef %.0.i3946) #3
  br i1 %114, label %123, label %lean_dec.exit18.thread

123:                                              ; preds = %lean_int_dec_le.exit.thread55, %lean_int_dec_le.exit
  %124 = phi i1 [ %116, %lean_int_dec_le.exit.thread55 ], [ %122, %lean_int_dec_le.exit ]
  %125 = load i32, ptr %.0.i3946, align 4, !tbaa !9
  %126 = icmp sgt i32 %125, 1
  br i1 %126, label %127, label %129, !prof !14

127:                                              ; preds = %123
  %128 = add nsw i32 %125, -1
  store i32 %128, ptr %.0.i3946, align 4, !tbaa !9
  br label %lean_dec.exit18

129:                                              ; preds = %123
  %.not.i23 = icmp eq i32 %125, 0
  br i1 %.not.i23, label %lean_dec.exit18, label %130

130:                                              ; preds = %129
  tail call void @lean_dec_ref_cold(ptr noundef nonnull %.0.i3946) #3
  br label %lean_dec.exit18

lean_dec.exit18:                                  ; preds = %130, %129, %127
  br i1 %.not.i.i, label %lean_dec.exit18.thread, label %lean_dec.exit

lean_dec.exit18.thread:                           ; preds = %lean_int_dec_le.exit, %lean_dec.exit18
  %.0.i.i5459 = phi i1 [ %124, %lean_dec.exit18 ], [ %122, %lean_int_dec_le.exit ]
  %131 = load i32, ptr %.0.i3043, align 4, !tbaa !9
  %132 = icmp sgt i32 %131, 1
  br i1 %132, label %133, label %135, !prof !14

133:                                              ; preds = %lean_dec.exit18.thread
  %134 = add nsw i32 %131, -1
  store i32 %134, ptr %.0.i3043, align 4, !tbaa !9
  br label %lean_dec.exit

135:                                              ; preds = %lean_dec.exit18.thread
  %.not.i25 = icmp eq i32 %131, 0
  br i1 %.not.i25, label %lean_dec.exit, label %136

136:                                              ; preds = %135
  tail call void @lean_dec_ref_cold(ptr noundef nonnull %.0.i3043) #3
  br label %lean_dec.exit

lean_dec.exit:                                    ; preds = %lean_dec.exit18.thread60, %136, %135, %133, %lean_dec.exit18
  %.0.i.i5458 = phi i1 [ %.0.i.i5459, %136 ], [ %.0.i.i5459, %135 ], [ %.0.i.i5459, %133 ], [ %124, %lean_dec.exit18 ], [ %121, %lean_dec.exit18.thread60 ]
  %137 = zext i1 %.0.i.i5458 to i8
  ret i8 %137
}